target datalayout = "e-m:e-p270:32:32-p271:32:32-p272:64:64-i64:64-i128:128-f80:128-n8:16:32:64-S128"
target triple = "x86_64-pc-linux-gnu"

%"struct.p2t::Node" = type { ptr, ptr, ptr, ptr, double }

; Function Attrs: mustprogress uwtable
define hidden void @_ZN3p2t5Sweep4FillERNS_12SweepContextERNS_4NodeE(ptr noundef nonnull align 8 dereferenceable(24) %0, ptr noundef nonnull align 8 dereferenceable(200) %1, ptr noundef nonnull align 8 dereferenceable(40) %2) #0 align 2 personality ptr @__gxx_personality_v0 {
  %4 = alloca ptr, align 8
  %5 = alloca ptr, align 8
  %6 = alloca ptr, align 8
  %7 = alloca ptr, align 8
  %8 = alloca ptr, align 8
  %9 = alloca i32, align 4
  store ptr %0, ptr %4, align 8
  store ptr %1, ptr %5, align 8
  store ptr %2, ptr %6, align 8
  %10 = load ptr, ptr %4, align 8
  call void @llvm.lifetime.start.p0(i64 8, ptr %7) #14
  %11 = call noalias noundef nonnull ptr @_Znwm(i64 noundef 64) #17
  %12 = load ptr, ptr %6, align 8
  %13 = getelementptr inbounds nuw %"struct.p2t::Node", ptr %12, i32 0, i32 3
  %14 = load ptr, ptr %13, align 8
  %15 = getelementptr inbounds nuw %"struct.p2t::Node", ptr %14, i32 0, i32 0
  %16 = load ptr, ptr %15, align 8
  %17 = load ptr, ptr %6, align 8
  %18 = getelementptr inbounds nuw %"struct.p2t::Node", ptr %17, i32 0, i32 0
  %19 = load ptr, ptr %18, align 8
  %20 = load ptr, ptr %6, align 8
  %21 = getelementptr inbounds nuw %"struct.p2t::Node", ptr %20, i32 0, i32 2
  %22 = load ptr, ptr %21, align 8
  %23 = getelementptr inbounds nuw %"struct.p2t::Node", ptr %22, i32 0, i32 0
  %24 = load ptr, ptr %23, align 8
  invoke void @_ZN3p2t8TriangleC1ERNS_5PointES2_S2_(ptr noundef nonnull align 8 dereferenceable(57) %11, ptr noundef nonnull align 8 dereferenceable(40) %16, ptr noundef nonnull align 8 dereferenceable(40) %19, ptr noundef nonnull align 8 dereferenceable(40) %24)
          to label %25 unwind label %58

25:                                               ; preds = %3
  store ptr %11, ptr %7, align 8
  %26 = load ptr, ptr %7, align 8
  %27 = load ptr, ptr %6, align 8
  %28 = getelementptr inbounds nuw %"struct.p2t::Node", ptr %27, i32 0, i32 3
  %29 = load ptr, ptr %28, align 8
  %30 = getelementptr inbounds nuw %"struct.p2t::Node", ptr %29, i32 0, i32 1
  %31 = load ptr, ptr %30, align 8
  call void @_ZN3p2t8Triangle12MarkNeighborERS0_(ptr noundef nonnull align 8 dereferenceable(57) %26, ptr noundef nonnull align 8 dereferenceable(57) %31)
  %32 = load ptr, ptr %7, align 8
  %33 = load ptr, ptr %6, align 8
  %34 = getelementptr inbounds nuw %"struct.p2t::Node", ptr %33, i32 0, i32 1
  %35 = load ptr, ptr %34, align 8
  call void @_ZN3p2t8Triangle12MarkNeighborERS0_(ptr noundef nonnull align 8 dereferenceable(57) %32, ptr noundef nonnull align 8 dereferenceable(57) %35)
  %36 = load ptr, ptr %5, align 8
  %37 = load ptr, ptr %7, align 8
  call void @_ZN3p2t12SweepContext8AddToMapEPNS_8TriangleE(ptr noundef nonnull align 8 dereferenceable(200) %36, ptr noundef %37)
  %38 = load ptr, ptr %6, align 8
  %39 = getelementptr inbounds nuw %"struct.p2t::Node", ptr %38, i32 0, i32 2
  %40 = load ptr, ptr %39, align 8
  %41 = load ptr, ptr %6, align 8
  %42 = getelementptr inbounds nuw %"struct.p2t::Node", ptr %41, i32 0, i32 3
  %43 = load ptr, ptr %42, align 8
  %44 = getelementptr inbounds nuw %"struct.p2t::Node", ptr %43, i32 0, i32 2
  store ptr %40, ptr %44, align 8
  %45 = load ptr, ptr %6, align 8
  %46 = getelementptr inbounds nuw %"struct.p2t::Node", ptr %45, i32 0, i32 3
  %47 = load ptr, ptr %46, align 8
  %48 = load ptr, ptr %6, align 8
  %49 = getelementptr inbounds nuw %"struct.p2t::Node", ptr %48, i32 0, i32 2
  %50 = load ptr, ptr %49, align 8
  %51 = getelementptr inbounds nuw %"struct.p2t::Node", ptr %50, i32 0, i32 3
  store ptr %47, ptr %51, align 8
  %52 = load ptr, ptr %5, align 8
  %53 = load ptr, ptr %7, align 8
  %54 = call noundef zeroext i1 @_ZN3p2t5Sweep8LegalizeERNS_12SweepContextERNS_8TriangleE(ptr noundef nonnull align 8 dereferenceable(24) %10, ptr noundef nonnull align 8 dereferenceable(200) %52, ptr noundef nonnull align 8 dereferenceable(57) %53)
  br i1 %54, label %62, label %55

55:                                               ; preds = %25
  %56 = load ptr, ptr %5, align 8
  %57 = load ptr, ptr %7, align 8
  call void @_ZN3p2t12SweepContext18MapTriangleToNodesERNS_8TriangleE(ptr noundef nonnull align 8 dereferenceable(200) %56, ptr noundef nonnull align 8 dereferenceable(57) %57)
  br label %62

58:                                               ; preds = %3
  %59 = landingpad { ptr, i32 }
          cleanup
  %60 = extractvalue { ptr, i32 } %59, 0
  store ptr %60, ptr %8, align 8
  %61 = extractvalue { ptr, i32 } %59, 1
  store i32 %61, ptr %9, align 4
  call void @_ZdlPvm(ptr noundef %11, i64 noundef 64) #18
  call void @llvm.lifetime.end.p0(i64 8, ptr %7) #14
  br label %63

62:                                               ; preds = %55, %25
  call void @llvm.lifetime.end.p0(i64 8, ptr %7) #14
  ret void

63:                                               ; preds = %58
  %64 = load ptr, ptr %8, align 8
  %65 = load i32, ptr %9, align 4
  %66 = insertvalue { ptr, i32 } poison, ptr %64, 0
  %67 = insertvalue { ptr, i32 } %66, i32 %65, 1
  resume { ptr, i32 } %67
}