; Function Attrs: mustprogress uwtable
define hidden void @_ZN3p2t5Sweep4FillERNS_12SweepContextERNS_4NodeE(ptr noundef nonnull align 8 dereferenceable(24) %0, ptr noundef nonnull align 8 dereferenceable(200) %1, ptr noundef nonnull readonly align 8 captures(none) dereferenceable(40) %2) local_unnamed_addr #2 align 2 personality ptr @__gxx_personality_v0 {
  %4 = tail call noalias noundef nonnull dereferenceable(64) ptr @_Znwm(i64 noundef 64) #18
  %5 = getelementptr inbounds nuw i8, ptr %2, i64 24
  %6 = load ptr, ptr %5, align 8
  %7 = load ptr, ptr %6, align 8
  %8 = load ptr, ptr %2, align 8
  %9 = getelementptr inbounds nuw i8, ptr %2, i64 16
  %10 = load ptr, ptr %9, align 8
  %11 = load ptr, ptr %10, align 8
  invoke void @_ZN3p2t8TriangleC1ERNS_5PointES2_S2_(ptr noundef nonnull align 8 dereferenceable(57) %4, ptr noundef nonnull align 8 dereferenceable(40) %7, ptr noundef nonnull align 8 dereferenceable(40) %8, ptr noundef nonnull align 8 dereferenceable(40) %11)
          to label %12 unwind label %25

12:                                               ; preds = %3
  %13 = load ptr, ptr %5, align 8
  %14 = getelementptr inbounds nuw i8, ptr %13, i64 8
  %15 = load ptr, ptr %14, align 8
  tail call void @_ZN3p2t8Triangle12MarkNeighborERS0_(ptr noundef nonnull align 8 dereferenceable(57) %4, ptr noundef nonnull align 8 dereferenceable(57) %15)
  %16 = getelementptr inbounds nuw i8, ptr %2, i64 8
  %17 = load ptr, ptr %16, align 8
  tail call void @_ZN3p2t8Triangle12MarkNeighborERS0_(ptr noundef nonnull align 8 dereferenceable(57) %4, ptr noundef nonnull align 8 dereferenceable(57) %17)
  tail call void @_ZN3p2t12SweepContext8AddToMapEPNS_8TriangleE(ptr noundef nonnull align 8 dereferenceable(200) %1, ptr noundef nonnull %4)
  %18 = load ptr, ptr %9, align 8
  %19 = load ptr, ptr %5, align 8
  %20 = getelementptr inbounds nuw i8, ptr %19, i64 16
  store ptr %18, ptr %20, align 8
  %21 = load ptr, ptr %5, align 8
  %22 = getelementptr inbounds nuw i8, ptr %18, i64 24
  store ptr %21, ptr %22, align 8
  %23 = tail call noundef zeroext i1 @_ZN3p2t5Sweep8LegalizeERNS_12SweepContextERNS_8TriangleE(ptr noundef nonnull align 8 dereferenceable(24) %0, ptr noundef nonnull align 8 dereferenceable(200) %1, ptr noundef nonnull align 8 dereferenceable(57) %4)
  br i1 %23, label %27, label %24

24:                                               ; preds = %12
  tail call void @_ZN3p2t12SweepContext18MapTriangleToNodesERNS_8TriangleE(ptr noundef nonnull align 8 dereferenceable(200) %1, ptr noundef nonnull align 8 dereferenceable(57) %4)
  br label %27

25:                                               ; preds = %3
  %26 = landingpad { ptr, i32 }
          cleanup
  tail call void @_ZdlPvm(ptr noundef nonnull %4, i64 noundef 64) #19
  resume { ptr, i32 } %26

27:                                               ; preds = %24, %12
  ret void
}